; Function Attrs: mustprogress nounwind uwtable
define dso_local { i64, i8 } @_ZNK4llvm9symbolize12MarkupFilter9parseSizeENS_9StringRefE(ptr noundef nonnull align 8 dereferenceable(464) %0, ptr %1, i64 %2) local_unnamed_addr #0 align 2 {
  %4 = alloca i64, align 8
  call void @llvm.lifetime.start.p0(i64 8, ptr nonnull %4)
  %5 = call noundef zeroext i1 @_ZN4llvm20getAsUnsignedIntegerENS_9StringRefEjRy(ptr %1, i64 %2, i32 noundef 0, ptr noundef nonnull align 8 dereferenceable(8) %4) #21
  br i1 %5, label %6, label %7

6:                                                ; preds = %3
  call void @llvm.lifetime.end.p0(i64 8, ptr nonnull %4)
  call void @_ZNK4llvm9symbolize12MarkupFilter15reportTypeErrorENS_9StringRefES2_(ptr noundef nonnull align 8 dereferenceable(464) %0, ptr %1, i64 %2, ptr nonnull @.str.44, i64 4)
  br label %9

7:                                                ; preds = %3
  %8 = load i64, ptr %4, align 8
  call void @llvm.lifetime.end.p0(i64 8, ptr nonnull %4)
  br label %9

9:                                                ; preds = %7, %6
  %.sroa.03.0 = phi i64 [ undef, %6 ], [ %8, %7 ]
  %.sroa.24.0 = phi i8 [ 0, %6 ], [ 1, %7 ]
  %.fca.0.insert = insertvalue { i64, i8 } poison, i64 %.sroa.03.0, 0
  %.fca.1.insert = insertvalue { i64, i8 } %.fca.0.insert, i8 %.sroa.24.0, 1
  ret { i64, i8 } %.fca.1.insert
}